target datalayout = "e-m:e-p270:32:32-p271:32:32-p272:64:64-i64:64-i128:128-f80:128-n8:16:32:64-S128"
target triple = "x86_64-pc-linux-gnu"

%"class.std::deque.18" = type { %"class.std::_Deque_base.19" }
%"class.std::_Deque_base.19" = type { %"struct.std::_Deque_base<std::__cxx11::basic_string<char>, std::allocator<std::__cxx11::basic_string<char>>>::_Deque_impl" }
%"struct.std::_Deque_base<std::__cxx11::basic_string<char>, std::allocator<std::__cxx11::basic_string<char>>>::_Deque_impl" = type { %"struct.std::_Deque_base<std::__cxx11::basic_string<char>, std::allocator<std::__cxx11::basic_string<char>>>::_Deque_impl_data" }
%"struct.std::_Deque_base<std::__cxx11::basic_string<char>, std::allocator<std::__cxx11::basic_string<char>>>::_Deque_impl_data" = type { ptr, i64, %"struct.std::_Deque_iterator.23", %"struct.std::_Deque_iterator.23" }
%"struct.std::_Deque_iterator.23" = type { ptr, ptr, ptr, ptr }
%class.VOptionBool = type { i8 }
%class.VTimescale = type { i8 }
%class.FlexLexer = type <{ ptr, ptr, i32, i32, i32, [4 x i8] }>
%class.V3ParseImp = type <{ ptr, ptr, ptr, ptr, ptr, ptr, i8, [3 x i8], i32, i32, %class.VOptionBool, [3 x i8], i32, i8, [3 x i8], %"class.std::deque", %"class.std::deque.0", %"class.std::deque.6", %"class.std::deque.12", %"class.std::deque.18", i64, ptr, %class.VTimescale, [7 x i8] }>
%"class.std::deque" = type { %"class.std::_Deque_base" }
%"class.std::_Deque_base" = type { %"struct.std::_Deque_base<V3ParseBisonYYSType, std::allocator<V3ParseBisonYYSType>>::_Deque_impl" }
%"struct.std::_Deque_base<V3ParseBisonYYSType, std::allocator<V3ParseBisonYYSType>>::_Deque_impl" = type { %"struct.std::_Deque_base<V3ParseBisonYYSType, std::allocator<V3ParseBisonYYSType>>::_Deque_impl_data" }
%"struct.std::_Deque_base<V3ParseBisonYYSType, std::allocator<V3ParseBisonYYSType>>::_Deque_impl_data" = type { ptr, i64, %"struct.std::_Deque_iterator", %"struct.std::_Deque_iterator" }
%"struct.std::_Deque_iterator" = type { ptr, ptr, ptr, ptr }
%"class.std::deque.0" = type { %"class.std::_Deque_base.1" }
%"class.std::_Deque_base.1" = type { %"struct.std::_Deque_base<std::__cxx11::basic_string<char> *, std::allocator<std::__cxx11::basic_string<char> *>>::_Deque_impl" }
%"struct.std::_Deque_base<std::__cxx11::basic_string<char> *, std::allocator<std::__cxx11::basic_string<char> *>>::_Deque_impl" = type { %"struct.std::_Deque_base<std::__cxx11::basic_string<char> *, std::allocator<std::__cxx11::basic_string<char> *>>::_Deque_impl_data" }
%"struct.std::_Deque_base<std::__cxx11::basic_string<char> *, std::allocator<std::__cxx11::basic_string<char> *>>::_Deque_impl_data" = type { ptr, i64, %"struct.std::_Deque_iterator.5", %"struct.std::_Deque_iterator.5" }
%"struct.std::_Deque_iterator.5" = type { ptr, ptr, ptr, ptr }
%"class.std::deque.6" = type { %"class.std::_Deque_base.7" }
%"class.std::_Deque_base.7" = type { %"struct.std::_Deque_base<V3Number *, std::allocator<V3Number *>>::_Deque_impl" }
%"struct.std::_Deque_base<V3Number *, std::allocator<V3Number *>>::_Deque_impl" = type { %"struct.std::_Deque_base<V3Number *, std::allocator<V3Number *>>::_Deque_impl_data" }
%"struct.std::_Deque_base<V3Number *, std::allocator<V3Number *>>::_Deque_impl_data" = type { ptr, i64, %"struct.std::_Deque_iterator.11", %"struct.std::_Deque_iterator.11" }
%"struct.std::_Deque_iterator.11" = type { ptr, ptr, ptr, ptr }
%"class.std::deque.12" = type { %"class.std::_Deque_base.13" }
%"class.std::_Deque_base.13" = type { %"struct.std::_Deque_base<FileLine, std::allocator<FileLine>>::_Deque_impl" }
%"struct.std::_Deque_base<FileLine, std::allocator<FileLine>>::_Deque_impl" = type { %"struct.std::_Deque_base<FileLine, std::allocator<FileLine>>::_Deque_impl_data" }
%"struct.std::_Deque_base<FileLine, std::allocator<FileLine>>::_Deque_impl_data" = type { ptr, i64, %"struct.std::_Deque_iterator.17", %"struct.std::_Deque_iterator.17" }
%"struct.std::_Deque_iterator.17" = type { ptr, ptr, ptr, ptr }

; Function Attrs: mustprogress nounwind uwtable
define linkonce_odr dso_local void @_ZN9FlexLexer9set_debugEi(ptr noundef nonnull align 8 dereferenceable(28) %0, i32 noundef %1) #4 comdat align 2 {
  %3 = alloca ptr, align 8
  %4 = alloca i32, align 4
  store ptr %0, ptr %3, align 8
  store i32 %1, ptr %4, align 4
  %5 = load ptr, ptr %3, align 8
  %6 = load i32, ptr %4, align 4
  %7 = getelementptr inbounds %class.FlexLexer, ptr %5, i32 0, i32 4
  store i32 %6, ptr %7, align 8
  ret void
}

; Function Attrs: mustprogress nounwind uwtable
define linkonce_odr dso_local void @_ZN7V3LexerD2Ev(ptr noundef nonnull align 8 dereferenceable(736) %0) unnamed_addr #4 comdat align 2 {
  %2 = alloca ptr, align 8
  store ptr %0, ptr %2, align 8
  %3 = load ptr, ptr %2, align 8
  call void @_ZN11V3LexerBaseD2Ev(ptr noundef nonnull align 8 dereferenceable(732) %3) #3
  ret void
}

; Function Attrs: mustprogress uwtable
define dso_local void @_ZN10V3ParseImp6lexNewEv(ptr noundef nonnull align 8 dereferenceable(496) %0) #5 align 2 personality ptr @__gxx_personality_v0 {
  %2 = alloca ptr, align 8
  %3 = alloca ptr, align 8
  %4 = alloca i32, align 4
  store ptr %0, ptr %2, align 8
  %5 = load ptr, ptr %2, align 8
  %6 = getelementptr inbounds %class.V3ParseImp, ptr %5, i32 0, i32 3
  %7 = load ptr, ptr %6, align 8
  %8 = icmp ne ptr %7, null
  br i1 %8, label %9, label %15

9:                                                ; preds = %1
  %10 = getelementptr inbounds %class.V3ParseImp, ptr %5, i32 0, i32 3
  %11 = load ptr, ptr %10, align 8
  %12 = icmp eq ptr %11, null
  br i1 %12, label %14, label %13

13:                                               ; preds = %9
  call void @_ZN7V3LexerD2Ev(ptr noundef nonnull align 8 dereferenceable(736) %11) #3
  call void @_ZdlPv(ptr noundef %11) #23
  br label %14

14:                                               ; preds = %13, %9
  br label %15

15:                                               ; preds = %14, %1
  %16 = call noalias noundef nonnull ptr @_Znwm(i64 noundef 736) #22
  invoke void @_ZN7V3LexerC2Ev(ptr noundef nonnull align 8 dereferenceable(736) %16)
          to label %17 unwind label %24

17:                                               ; preds = %15
  %18 = getelementptr inbounds %class.V3ParseImp, ptr %5, i32 0, i32 3
  store ptr %16, ptr %18, align 8
  %19 = call noundef i32 @_ZN10V3ParseImp9debugFlexEv()
  %20 = icmp sge i32 %19, 9
  br i1 %20, label %21, label %28

21:                                               ; preds = %17
  %22 = getelementptr inbounds %class.V3ParseImp, ptr %5, i32 0, i32 3
  %23 = load ptr, ptr %22, align 8
  call void @_ZN9FlexLexer9set_debugEi(ptr noundef nonnull align 8 dereferenceable(28) %23, i32 noundef -1)
  br label %28

24:                                               ; preds = %15
  %25 = landingpad { ptr, i32 }
          cleanup
  %26 = extractvalue { ptr, i32 } %25, 0
  store ptr %26, ptr %3, align 8
  %27 = extractvalue { ptr, i32 } %25, 1
  store i32 %27, ptr %4, align 4
  call void @_ZdlPv(ptr noundef %16) #23
  br label %29

28:                                               ; preds = %21, %17
  ret void

29:                                               ; preds = %24
  %30 = load ptr, ptr %3, align 8
  %31 = load i32, ptr %4, align 4
  %32 = insertvalue { ptr, i32 } poison, ptr %30, 0
  %33 = insertvalue { ptr, i32 } %32, i32 %31, 1
  resume { ptr, i32 } %33
}