; Function Attrs: mustprogress uwtable
define dso_local void @_ZN10V3ParseImp6lexNewEv(ptr nocapture noundef nonnull align 8 dereferenceable(496) %0) #4 align 2 personality ptr @__gxx_personality_v0 {
  %2 = getelementptr inbounds i8, ptr %0, i64 24
  %3 = load ptr, ptr %2, align 8
  %.not = icmp eq ptr %3, null
  br i1 %.not, label %5, label %4

4:                                                ; preds = %1
  tail call void @_ZN11V3LexerBaseD2Ev(ptr noundef nonnull align 8 dereferenceable(732) %3) #33
  tail call void @_ZdlPv(ptr noundef nonnull %3) #36
  br label %5

5:                                                ; preds = %4, %1
  %6 = tail call noalias noundef nonnull dereferenceable(736) ptr @_Znwm(i64 noundef 736) #35
  invoke void @_ZN7V3LexerC2Ev(ptr noundef nonnull align 8 dereferenceable(736) %6)
          to label %7 unwind label %13

7:                                                ; preds = %5
  store ptr %6, ptr %2, align 8
  %8 = tail call noundef i32 @_ZN10V3ParseImp9debugFlexEv()
  %9 = icmp sgt i32 %8, 8
  br i1 %9, label %10, label %15

10:                                               ; preds = %7
  %11 = load ptr, ptr %2, align 8
  %12 = getelementptr inbounds i8, ptr %11, i64 24
  store i32 -1, ptr %12, align 8
  br label %15

13:                                               ; preds = %5
  %14 = landingpad { ptr, i32 }
          cleanup
  tail call void @_ZdlPv(ptr noundef nonnull %6) #36
  resume { ptr, i32 } %14

15:                                               ; preds = %10, %7
  ret void
}